ccopy_reg
_reconstructor
p0
(cnltk.classify.decisiontree
DecisionTreeClassifier
p1
c__builtin__
object
p2
Ntp3
Rp4
(dp5
S'_fname'
p6
S'bad'
p7
sS'_label'
p8
S'neg'
p9
sS'_decisions'
p10
(dp11
I01
g0
(g1
g2
Ntp12
Rp13
(dp14
g6
Nsg8
g9
sg10
NsS'_default'
p15
NsbsNg0
(g1
g2
Ntp16
Rp17
(dp18
g6
Nsg8
S'pos'
p19
sg10
Nsg15
Nsbssg15
Nsb.