ccopy_reg
_reconstructor
p0
(cnltk.classify.naivebayes
NaiveBayesClassifier
p1
c__builtin__
object
p2
Ntp3
Rp4
(dp5
S'_labels'
p6
(lp7
S'neg'
p8
aS'pos'
p9
asS'_feature_probdist'
p10
(dp11
(g8
S'terrible'
p12
tp13
g0
(cnltk.probability
ELEProbDist
p14
g2
Ntp15
Rp16
(dp17
S'_gamma'
p18
F0.5
sS'_N'
p19
I9375
sS'_freqdist'
p20
cnltk.probability
FreqDist
p21
((dp22
I01
I803
sNI8572
stp23
Rp24
sS'_bins'
p25
I2
sS'_divisor'
p26
F9376.0
sbs(g8
S'and'
p27
tp28
g0
(g14
g2
Ntp29
Rp30
(dp31
g18
F0.5
sg19
I9375
sg20
g21
((dp32
I01
I8959
sNI416
stp33
Rp34
sg25
I2
sg26
F9376.0
sbs(g8
S'waste'
p35
tp36
g0
(g14
g2
Ntp37
Rp38
(dp39
g18
F0.5
sg19
I9375
sg20
g21
((dp40
I01
I900
sNI8475
stp41
Rp42
sg25
I2
sg26
F9376.0
sbs(g9
S'great'
p43
tp44
g0
(g14
g2
Ntp45
Rp46
(dp47
g18
F0.5
sg19
I9375
sg20
g21
((dp48
I01
I2993
sNI6382
stp49
Rp50
sg25
I2
sg26
F9376.0
sbs(g9
S'terrible'
p51
tp52
g0
(g14
g2
Ntp53
Rp54
(dp55
g18
F0.5
sg19
I9375
sg20
g21
((dp56
I01
I162
sNI9213
stp57
Rp58
sg25
I2
sg26
F9376.0
sbs(g9
S'awful'
p59
tp60
g0
(g14
g2
Ntp61
Rp62
(dp63
g18
F0.5
sg19
I9375
sg20
g21
((dp64
I01
I116
sNI9259
stp65
Rp66
sg25
I2
sg26
F9376.0
sbs(g8
S'great'
p67
tp68
g0
(g14
g2
Ntp69
Rp70
(dp71
g18
F0.5
sg19
I9375
sg20
g21
((dp72
I01
I1503
sNI7872
stp73
Rp74
sg25
I2
sg26
F9376.0
sbs(g8
S'movie'
p75
tp76
g0
(g14
g2
Ntp77
Rp78
(dp79
g18
F0.5
sg19
I9375
sg20
g21
((dp80
I01
I6109
sNI3266
stp81
Rp82
sg25
I2
sg26
F9376.0
sbs(g9
S'waste'
p83
tp84
g0
(g14
g2
Ntp85
Rp86
(dp87
g18
F0.5
sg19
I9375
sg20
g21
((dp88
I01
I66
sNI9309
stp89
Rp90
sg25
I2
sg26
F9376.0
sbs(g9
S'?'
p91
tp92
g0
(g14
g2
Ntp93
Rp94
(dp95
g18
F0.5
sg19
I9375
sg20
g21
((dp96
I01
I1997
sNI7378
stp97
Rp98
sg25
I2
sg26
F9376.0
sbs(g9
S'no'
p99
tp100
g0
(g14
g2
Ntp101
Rp102
(dp103
g18
F0.5
sg19
I9375
sg20
g21
((dp104
I01
I2176
sNI7199
stp105
Rp106
sg25
I2
sg26
F9376.0
sbs(g9
S'bad'
p107
tp108
g0
(g14
g2
Ntp109
Rp110
(dp111
g18
F0.5
sg19
I9375
sg20
g21
((dp112
I01
I1039
sNI8336
stp113
Rp114
sg25
I2
sg26
F9376.0
sbs(g9
S'and'
p115
tp116
g0
(g14
g2
Ntp117
Rp118
(dp119
g18
F0.5
sg19
I9375
sg20
g21
((dp120
I01
I9089
sNI286
stp121
Rp122
sg25
I2
sg26
F9376.0
sbs(g8
S'bad'
p123
tp124
g0
(g14
g2
Ntp125
Rp126
(dp127
g18
F0.5
sg19
I9375
sg20
g21
((dp128
I01
I3160
sNI6215
stp129
Rp130
sg25
I2
sg26
F9376.0
sbs(g9
S'movie'
p131
tp132
g0
(g14
g2
Ntp133
Rp134
(dp135
g18
F0.5
sg19
I9375
sg20
g21
((dp136
I01
I5117
sNI4258
stp137
Rp138
sg25
I2
sg26
F9376.0
sbs(g8
S'awful'
p139
tp140
g0
(g14
g2
Ntp141
Rp142
(dp143
g18
F0.5
sg19
I9375
sg20
g21
((dp144
I01
I909
sNI8466
stp145
Rp146
sg25
I2
sg26
F9376.0
sbs(g8
S'no'
p147
tp148
g0
(g14
g2
Ntp149
Rp150
(dp151
g18
F0.5
sg19
I9375
sg20
g21
((dp152
I01
I3319
sNI6056
stp153
Rp154
sg25
I2
sg26
F9376.0
sbs(g9
S'worst'
p155
tp156
g0
(g14
g2
Ntp157
Rp158
(dp159
g18
F0.5
sg19
I9375
sg20
g21
((dp160
I01
I151
sNI9224
stp161
Rp162
sg25
I2
sg26
F9376.0
sbs(g8
g91
tp163
g0
(g14
g2
Ntp164
Rp165
(dp166
g18
F0.5
sg19
I9375
sg20
g21
((dp167
I01
I3538
sNI5837
stp168
Rp169
sg25
I2
sg26
F9376.0
sbs(g8
S'worst'
p170
tp171
g0
(g14
g2
Ntp172
Rp173
(dp174
g18
F0.5
sg19
I9375
sg20
g21
((dp175
I01
I1406
sNI7969
stp176
Rp177
sg25
I2
sg26
F9376.0
sbssS'_label_probdist'
p178
g0
(g14
g2
Ntp179
Rp180
(dp181
g18
F0.5
sg19
I18750
sg20
g21
((dp182
g8
I9375
sg9
I9375
stp183
Rp184
sg25
I2
sg26
F18751.0
sbsb.