ccopy_reg
_reconstructor
p0
(cnltk.classify.naivebayes
NaiveBayesClassifier
p1
c__builtin__
object
p2
Ntp3
Rp4
(dp5
S'_labels'
p6
(lp7
S'neg'
p8
aS'pos'
p9
asS'_feature_probdist'
p10
(dp11
(g8
S','
p12
tp13
g0
(cnltk.probability
ELEProbDist
p14
g2
Ntp15
Rp16
(dp17
S'_gamma'
p18
F0.5
sS'_N'
p19
I9375
sS'_freqdist'
p20
cnltk.probability
FreqDist
p21
((dp22
I01
I9058
sNI317
stp23
Rp24
sS'_bins'
p25
I2
sS'_divisor'
p26
F9376.0
sbs(g9
S'awful'
p27
tp28
g0
(g14
g2
Ntp29
Rp30
(dp31
g18
F0.5
sg19
I9375
sg20
g21
((dp32
I01
I116
sNI9259
stp33
Rp34
sg25
I2
sg26
F9376.0
sbs(g9
S'love'
p35
tp36
g0
(g14
g2
Ntp37
Rp38
(dp39
g18
F0.5
sg19
I9375
sg20
g21
((dp40
I01
I2049
sNI7326
stp41
Rp42
sg25
I2
sg26
F9376.0
sbs(g8
S'in'
p43
tp44
g0
(g14
g2
Ntp45
Rp46
(dp47
g18
F0.5
sg19
I9375
sg20
g21
((dp48
I01
I8087
sNI1288
stp49
Rp50
sg25
I2
sg26
F9376.0
sbs(g9
S'only'
p51
tp52
g0
(g14
g2
Ntp53
Rp54
(dp55
g18
F0.5
sg19
I9375
sg20
g21
((dp56
I01
I2701
sNI6674
stp57
Rp58
sg25
I2
sg26
F9376.0
sbs(g9
S'or'
p59
tp60
g0
(g14
g2
Ntp61
Rp62
(dp63
g18
F0.5
sg19
I9375
sg20
g21
((dp64
I01
I3383
sNI5992
stp65
Rp66
sg25
I2
sg26
F9376.0
sbs(g9
S'ridiculous'
p67
tp68
g0
(g14
g2
Ntp69
Rp70
(dp71
g18
F0.5
sg19
I9375
sg20
g21
((dp72
I01
I120
sNI9255
stp73
Rp74
sg25
I2
sg26
F9376.0
sbs(g8
S'only'
p75
tp76
g0
(g14
g2
Ntp77
Rp78
(dp79
g18
F0.5
sg19
I9375
sg20
g21
((dp80
I01
I3388
sNI5987
stp81
Rp82
sg25
I2
sg26
F9376.0
sbs(g8
S'wasted'
p83
tp84
g0
(g14
g2
Ntp85
Rp86
(dp87
g18
F0.5
sg19
I9375
sg20
g21
((dp88
I01
I335
sNI9040
stp89
Rp90
sg25
I2
sg26
F9376.0
sbs(g8
S'instead'
p91
tp92
g0
(g14
g2
Ntp93
Rp94
(dp95
g18
F0.5
sg19
I9375
sg20
g21
((dp96
I01
I743
sNI8632
stp97
Rp98
sg25
I2
sg26
F9376.0
sbs(g8
S'cheap'
p99
tp100
g0
(g14
g2
Ntp101
Rp102
(dp103
g18
F0.5
sg19
I9375
sg20
g21
((dp104
I01
I441
sNI8934
stp105
Rp106
sg25
I2
sg26
F9376.0
sbs(g9
S'then'
p107
tp108
g0
(g14
g2
Ntp109
Rp110
(dp111
g18
F0.5
sg19
I9375
sg20
g21
((dp112
I01
I1591
sNI7784
stp113
Rp114
sg25
I2
sg26
F9376.0
sbs(g9
S'cheap'
p115
tp116
g0
(g14
g2
Ntp117
Rp118
(dp119
g18
F0.5
sg19
I9375
sg20
g21
((dp120
I01
I129
sNI9246
stp121
Rp122
sg25
I2
sg26
F9376.0
sbs(g8
S'superb'
p123
tp124
g0
(g14
g2
Ntp125
Rp126
(dp127
g18
F0.5
sg19
I9375
sg20
g21
((dp128
I01
I76
sNI9299
stp129
Rp130
sg25
I2
sg26
F9376.0
sbs(g8
S'would'
p131
tp132
g0
(g14
g2
Ntp133
Rp134
(dp135
g18
F0.5
sg19
I9375
sg20
g21
((dp136
I01
I3336
sNI6039
stp137
Rp138
sg25
I2
sg26
F9376.0
sbs(g8
S'his'
p139
tp140
g0
(g14
g2
Ntp141
Rp142
(dp143
g18
F0.5
sg19
I9375
sg20
g21
((dp144
I01
I3616
sNI5759
stp145
Rp146
sg25
I2
sg26
F9376.0
sbs(g8
S'of'
p147
tp148
g0
(g14
g2
Ntp149
Rp150
(dp151
g18
F0.5
sg19
I9375
sg20
g21
((dp152
I01
I8891
sNI484
stp153
Rp154
sg25
I2
sg26
F9376.0
sbs(g8
S'any'
p155
tp156
g0
(g14
g2
Ntp157
Rp158
(dp159
g18
F0.5
sg19
I9375
sg20
g21
((dp160
I01
I2475
sNI6900
stp161
Rp162
sg25
I2
sg26
F9376.0
sbs(g9
S'minutes'
p163
tp164
g0
(g14
g2
Ntp165
Rp166
(dp167
g18
F0.5
sg19
I9375
sg20
g21
((dp168
I01
I530
sNI8845
stp169
Rp170
sg25
I2
sg26
F9376.0
sbs(g8
S'2'
p171
tp172
g0
(g14
g2
Ntp173
Rp174
(dp175
g18
F0.5
sg19
I9375
sg20
g21
((dp176
I01
I1125
sNI8250
stp177
Rp178
sg25
I2
sg26
F9376.0
sbs(g9
S'any'
p179
tp180
g0
(g14
g2
Ntp181
Rp182
(dp183
g18
F0.5
sg19
I9375
sg20
g21
((dp184
I01
I1711
sNI7664
stp185
Rp186
sg25
I2
sg26
F9376.0
sbs(g8
S'love'
p187
tp188
g0
(g14
g2
Ntp189
Rp190
(dp191
g18
F0.5
sg19
I9375
sg20
g21
((dp192
I01
I1120
sNI8255
stp193
Rp194
sg25
I2
sg26
F9376.0
sbs(g9
S'?'
p195
tp196
g0
(g14
g2
Ntp197
Rp198
(dp199
g18
F0.5
sg19
I9375
sg20
g21
((dp200
I01
I1997
sNI7378
stp201
Rp202
sg25
I2
sg26
F9376.0
sbs(g8
S'like'
p203
tp204
g0
(g14
g2
Ntp205
Rp206
(dp207
g18
F0.5
sg19
I9375
sg20
g21
((dp208
I01
I4617
sNI4758
stp209
Rp210
sg25
I2
sg26
F9376.0
sbs(g9
S'there'
p211
tp212
g0
(g14
g2
Ntp213
Rp214
(dp215
g18
F0.5
sg19
I9375
sg20
g21
((dp216
I01
I2493
sNI6882
stp217
Rp218
sg25
I2
sg26
F9376.0
sbs(g8
S'well'
p219
tp220
g0
(g14
g2
Ntp221
Rp222
(dp223
g18
F0.5
sg19
I9375
sg20
g21
((dp224
I01
I1944
sNI7431
stp225
Rp226
sg25
I2
sg26
F9376.0
sbs(g8
S'no'
p227
tp228
g0
(g14
g2
Ntp229
Rp230
(dp231
g18
F0.5
sg19
I9375
sg20
g21
((dp232
I01
I3319
sNI6056
stp233
Rp234
sg25
I2
sg26
F9376.0
sbs(g8
S'guy'
p235
tp236
g0
(g14
g2
Ntp237
Rp238
(dp239
g18
F0.5
sg19
I9375
sg20
g21
((dp240
I01
I935
sNI8440
stp241
Rp242
sg25
I2
sg26
F9376.0
sbs(g8
S'least'
p243
tp244
g0
(g14
g2
Ntp245
Rp246
(dp247
g18
F0.5
sg19
I9375
sg20
g21
((dp248
I01
I1287
sNI8088
stp249
Rp250
sg25
I2
sg26
F9376.0
sbs(g9
S'performance'
p251
tp252
g0
(g14
g2
Ntp253
Rp254
(dp255
g18
F0.5
sg19
I9375
sg20
g21
((dp256
I01
I1082
sNI8293
stp257
Rp258
sg25
I2
sg26
F9376.0
sbs(g8
S'this'
p259
tp260
g0
(g14
g2
Ntp261
Rp262
(dp263
g18
F0.5
sg19
I9375
sg20
g21
((dp264
I01
I8175
sNI1200
stp265
Rp266
sg25
I2
sg26
F9376.0
sbs(g9
S'laughable'
p267
tp268
g0
(g14
g2
Ntp269
Rp270
(dp271
g18
F0.5
sg19
I9375
sg20
g21
((dp272
I01
I27
sNI9348
stp273
Rp274
sg25
I2
sg26
F9376.0
sbs(g8
S'avoid'
p275
tp276
g0
(g14
g2
Ntp277
Rp278
(dp279
g18
F0.5
sg19
I9375
sg20
g21
((dp280
I01
I238
sNI9137
stp281
Rp282
sg25
I2
sg26
F9376.0
sbs(g9
S'mess'
p283
tp284
g0
(g14
g2
Ntp285
Rp286
(dp287
g18
F0.5
sg19
I9375
sg20
g21
((dp288
I01
I55
sNI9320
stp289
Rp290
sg25
I2
sg26
F9376.0
sbs(g9
S'of'
p291
tp292
g0
(g14
g2
Ntp293
Rp294
(dp295
g18
F0.5
sg19
I9375
sg20
g21
((dp296
I01
I8870
sNI505
stp297
Rp298
sg25
I2
sg26
F9376.0
sbs(g9
S'beautiful'
p299
tp300
g0
(g14
g2
Ntp301
Rp302
(dp303
g18
F0.5
sg19
I9375
sg20
g21
((dp304
I01
I961
sNI8414
stp305
Rp306
sg25
I2
sg26
F9376.0
sbs(g9
S'guy'
p307
tp308
g0
(g14
g2
Ntp309
Rp310
(dp311
g18
F0.5
sg19
I9375
sg20
g21
((dp312
I01
I560
sNI8815
stp313
Rp314
sg25
I2
sg26
F9376.0
sbs(g9
S'her'
p315
tp316
g0
(g14
g2
Ntp317
Rp318
(dp319
g18
F0.5
sg19
I9375
sg20
g21
((dp320
I01
I2567
sNI6808
stp321
Rp322
sg25
I2
sg26
F9376.0
sbs(g8
S'today'
p323
tp324
g0
(g14
g2
Ntp325
Rp326
(dp327
g18
F0.5
sg19
I9375
sg20
g21
((dp328
I01
I155
sNI9220
stp329
Rp330
sg25
I2
sg26
F9376.0
sbs(g9
S'this'
p331
tp332
g0
(g14
g2
Ntp333
Rp334
(dp335
g18
F0.5
sg19
I9375
sg20
g21
((dp336
I01
I7614
sNI1761
stp337
Rp338
sg25
I2
sg26
F9376.0
sbs(g9
g171
tp339
g0
(g14
g2
Ntp340
Rp341
(dp342
g18
F0.5
sg19
I9375
sg20
g21
((dp343
I01
I549
sNI8826
stp344
Rp345
sg25
I2
sg26
F9376.0
sbs(g8
S'reason'
p346
tp347
g0
(g14
g2
Ntp348
Rp349
(dp350
g18
F0.5
sg19
I9375
sg20
g21
((dp351
I01
I973
sNI8402
stp352
Rp353
sg25
I2
sg26
F9376.0
sbs(g9
S'worst'
p354
tp355
g0
(g14
g2
Ntp356
Rp357
(dp358
g18
F0.5
sg19
I9375
sg20
g21
((dp359
I01
I151
sNI9224
stp360
Rp361
sg25
I2
sg26
F9376.0
sbs(g9
S'poorly'
p362
tp363
g0
(g14
g2
Ntp364
Rp365
(dp366
g18
F0.5
sg19
I9375
sg20
g21
((dp367
I01
I49
sNI9326
stp368
Rp369
sg25
I2
sg26
F9376.0
sbs(g9
S'avoid'
p370
tp371
g0
(g14
g2
Ntp372
Rp373
(dp374
g18
F0.5
sg19
I9375
sg20
g21
((dp375
I01
I98
sNI9277
stp376
Rp377
sg25
I2
sg26
F9376.0
sbs(g9
S'supposed'
p378
tp379
g0
(g14
g2
Ntp380
Rp381
(dp382
g18
F0.5
sg19
I9375
sg20
g21
((dp383
I01
I219
sNI9156
stp384
Rp385
sg25
I2
sg26
F9376.0
sbs(g8
S'oh'
p386
tp387
g0
(g14
g2
Ntp388
Rp389
(dp390
g18
F0.5
sg19
I9375
sg20
g21
((dp391
I01
I221
sNI9154
stp392
Rp393
sg25
I2
sg26
F9376.0
sbs(g9
S'have'
p394
tp395
g0
(g14
g2
Ntp396
Rp397
(dp398
g18
F0.5
sg19
I9375
sg20
g21
((dp399
I01
I4977
sNI4398
stp400
Rp401
sg25
I2
sg26
F9376.0
sbs(g9
S'favorite'
p402
tp403
g0
(g14
g2
Ntp404
Rp405
(dp406
g18
F0.5
sg19
I9375
sg20
g21
((dp407
I01
I589
sNI8786
stp408
Rp409
sg25
I2
sg26
F9376.0
sbs(g9
S'horrible'
p410
tp411
g0
(g14
g2
Ntp412
Rp413
(dp414
g18
F0.5
sg19
I9375
sg20
g21
((dp415
I01
I119
sNI9256
stp416
Rp417
sg25
I2
sg26
F9376.0
sbs(g9
S'life'
p418
tp419
g0
(g14
g2
Ntp420
Rp421
(dp422
g18
F0.5
sg19
I9375
sg20
g21
((dp423
I01
I1950
sNI7425
stp424
Rp425
sg25
I2
sg26
F9376.0
sbs(g9
S'nothing'
p426
tp427
g0
(g14
g2
Ntp428
Rp429
(dp430
g18
F0.5
sg19
I9375
sg20
g21
((dp431
I01
I704
sNI8671
stp432
Rp433
sg25
I2
sg26
F9376.0
sbs(g8
S'fantastic'
p434
tp435
g0
(g14
g2
Ntp436
Rp437
(dp438
g18
F0.5
sg19
I9375
sg20
g21
((dp439
I01
I97
sNI9278
stp440
Rp441
sg25
I2
sg26
F9376.0
sbs(g9
S'pathetic'
p442
tp443
g0
(g14
g2
Ntp444
Rp445
(dp446
g18
F0.5
sg19
I9375
sg20
g21
((dp447
I01
I43
sNI9332
stp448
Rp449
sg25
I2
sg26
F9376.0
sbs(g9
S'amazing'
p450
tp451
g0
(g14
g2
Ntp452
Rp453
(dp454
g18
F0.5
sg19
I9375
sg20
g21
((dp455
I01
I605
sNI8770
stp456
Rp457
sg25
I2
sg26
F9376.0
sbs(g8
S'crap'
p458
tp459
g0
(g14
g2
Ntp460
Rp461
(dp462
g18
F0.5
sg19
I9375
sg20
g21
((dp463
I01
I542
sNI8833
stp464
Rp465
sg25
I2
sg26
F9376.0
sbs(g9
S'best'
p466
tp467
g0
(g14
g2
Ntp468
Rp469
(dp470
g18
F0.5
sg19
I9375
sg20
g21
((dp471
I01
I2210
sNI7165
stp472
Rp473
sg25
I2
sg26
F9376.0
sbs(g8
S'terrible'
p474
tp475
g0
(g14
g2
Ntp476
Rp477
(dp478
g18
F0.5
sg19
I9375
sg20
g21
((dp479
I01
I803
sNI8572
stp480
Rp481
sg25
I2
sg26
F9376.0
sbs(g9
S'so'
p482
tp483
g0
(g14
g2
Ntp484
Rp485
(dp486
g18
F0.5
sg19
I9375
sg20
g21
((dp487
I01
I3715
sNI5660
stp488
Rp489
sg25
I2
sg26
F9376.0
sbs(g9
S'annoying'
p490
tp491
g0
(g14
g2
Ntp492
Rp493
(dp494
g18
F0.5
sg19
I9375
sg20
g21
((dp495
I01
I150
sNI9225
stp496
Rp497
sg25
I2
sg26
F9376.0
sbs(g9
S'even'
p498
tp499
g0
(g14
g2
Ntp500
Rp501
(dp502
g18
F0.5
sg19
I9375
sg20
g21
((dp503
I01
I2287
sNI7088
stp504
Rp505
sg25
I2
sg26
F9376.0
sbs(g9
S'world'
p506
tp507
g0
(g14
g2
Ntp508
Rp509
(dp510
g18
F0.5
sg19
I9375
sg20
g21
((dp511
I01
I1114
sNI8261
stp512
Rp513
sg25
I2
sg26
F9376.0
sbs(g9
S'would'
p514
tp515
g0
(g14
g2
Ntp516
Rp517
(dp518
g18
F0.5
sg19
I9375
sg20
g21
((dp519
I01
I2712
sNI6663
stp520
Rp521
sg25
I2
sg26
F9376.0
sbs(g9
S"didn't"
p522
tp523
g0
(g14
g2
Ntp524
Rp525
(dp526
g18
F0.5
sg19
I9375
sg20
g21
((dp527
I01
I1027
sNI8348
stp528
Rp529
sg25
I2
sg26
F9376.0
sbs(g9
S'great'
p530
tp531
g0
(g14
g2
Ntp532
Rp533
(dp534
g18
F0.5
sg19
I9375
sg20
g21
((dp535
I01
I2993
sNI6382
stp536
Rp537
sg25
I2
sg26
F9376.0
sbs(g8
S'heart'
p538
tp539
g0
(g14
g2
Ntp540
Rp541
(dp542
g18
F0.5
sg19
I9375
sg20
g21
((dp543
I01
I225
sNI9150
stp544
Rp545
sg25
I2
sg26
F9376.0
sbs(g8
S'worst'
p546
tp547
g0
(g14
g2
Ntp548
Rp549
(dp550
g18
F0.5
sg19
I9375
sg20
g21
((dp551
I01
I1406
sNI7969
stp552
Rp553
sg25
I2
sg26
F9376.0
sbs(g9
S'thing'
p554
tp555
g0
(g14
g2
Ntp556
Rp557
(dp558
g18
F0.5
sg19
I9375
sg20
g21
((dp559
I01
I1017
sNI8358
stp560
Rp561
sg25
I2
sg26
F9376.0
sbs(g8
S'great'
p562
tp563
g0
(g14
g2
Ntp564
Rp565
(dp566
g18
F0.5
sg19
I9375
sg20
g21
((dp567
I01
I1503
sNI7872
stp568
Rp569
sg25
I2
sg26
F9376.0
sbs(g8
S'have'
p570
tp571
g0
(g14
g2
Ntp572
Rp573
(dp574
g18
F0.5
sg19
I9375
sg20
g21
((dp575
I01
I5599
sNI3776
stp576
Rp577
sg25
I2
sg26
F9376.0
sbs(g8
S'always'
p578
tp579
g0
(g14
g2
Ntp580
Rp581
(dp582
g18
F0.5
sg19
I9375
sg20
g21
((dp583
I01
I716
sNI8659
stp584
Rp585
sg25
I2
sg26
F9376.0
sbs(g8
S'performance'
p586
tp587
g0
(g14
g2
Ntp588
Rp589
(dp590
g18
F0.5
sg19
I9375
sg20
g21
((dp591
I01
I576
sNI8799
stp592
Rp593
sg25
I2
sg26
F9376.0
sbs(g9
S'stupid'
p594
tp595
g0
(g14
g2
Ntp596
Rp597
(dp598
g18
F0.5
sg19
I9375
sg20
g21
((dp599
I01
I179
sNI9196
stp600
Rp601
sg25
I2
sg26
F9376.0
sbs(g9
S'dumb'
p602
tp603
g0
(g14
g2
Ntp604
Rp605
(dp606
g18
F0.5
sg19
I9375
sg20
g21
((dp607
I01
I77
sNI9298
stp608
Rp609
sg25
I2
sg26
F9376.0
sbs(g8
S'stupid'
p610
tp611
g0
(g14
g2
Ntp612
Rp613
(dp614
g18
F0.5
sg19
I9375
sg20
g21
((dp615
I01
I780
sNI8595
stp616
Rp617
sg25
I2
sg26
F9376.0
sbs(g8
S'pathetic'
p618
tp619
g0
(g14
g2
Ntp620
Rp621
(dp622
g18
F0.5
sg19
I9375
sg20
g21
((dp623
I01
I273
sNI9102
stp624
Rp625
sg25
I2
sg26
F9376.0
sbs(g9
S'unless'
p626
tp627
g0
(g14
g2
Ntp628
Rp629
(dp630
g18
F0.5
sg19
I9375
sg20
g21
((dp631
I01
I84
sNI9291
stp632
Rp633
sg25
I2
sg26
F9376.0
sbs(g8
S'script'
p634
tp635
g0
(g14
g2
Ntp636
Rp637
(dp638
g18
F0.5
sg19
I9375
sg20
g21
((dp639
I01
I1265
sNI8110
stp640
Rp641
sg25
I2
sg26
F9376.0
sbs(g9
S'loved'
p642
tp643
g0
(g14
g2
Ntp644
Rp645
(dp646
g18
F0.5
sg19
I9375
sg20
g21
((dp647
I01
I657
sNI8718
stp648
Rp649
sg25
I2
sg26
F9376.0
sbs(g8
S'loved'
p650
tp651
g0
(g14
g2
Ntp652
Rp653
(dp654
g18
F0.5
sg19
I9375
sg20
g21
((dp655
I01
I208
sNI9167
stp656
Rp657
sg25
I2
sg26
F9376.0
sbs(g8
S'brilliant'
p658
tp659
g0
(g14
g2
Ntp660
Rp661
(dp662
g18
F0.5
sg19
I9375
sg20
g21
((dp663
I01
I181
sNI9194
stp664
Rp665
sg25
I2
sg26
F9376.0
sbs(g9
S'wonderful'
p666
tp667
g0
(g14
g2
Ntp668
Rp669
(dp670
g18
F0.5
sg19
I9375
sg20
g21
((dp671
I01
I818
sNI8557
stp672
Rp673
sg25
I2
sg26
F9376.0
sbs(g8
S'or'
p674
tp675
g0
(g14
g2
Ntp676
Rp677
(dp678
g18
F0.5
sg19
I9375
sg20
g21
((dp679
I01
I4180
sNI5195
stp680
Rp681
sg25
I2
sg26
F9376.0
sbs(g9
S'poor'
p682
tp683
g0
(g14
g2
Ntp684
Rp685
(dp686
g18
F0.5
sg19
I9375
sg20
g21
((dp687
I01
I253
sNI9122
stp688
Rp689
sg25
I2
sg26
F9376.0
sbs(g9
S'always'
p690
tp691
g0
(g14
g2
Ntp692
Rp693
(dp694
g18
F0.5
sg19
I9375
sg20
g21
((dp695
I01
I1256
sNI8119
stp696
Rp697
sg25
I2
sg26
F9376.0
sbs(g9
g12
tp698
g0
(g14
g2
Ntp699
Rp700
(dp701
g18
F0.5
sg19
I9375
sg20
g21
((dp702
I01
I8978
sNI397
stp703
Rp704
sg25
I2
sg26
F9376.0
sbs(g8
S'wonderful'
p705
tp706
g0
(g14
g2
Ntp707
Rp708
(dp709
g18
F0.5
sg19
I9375
sg20
g21
((dp710
I01
I206
sNI9169
stp711
Rp712
sg25
I2
sg26
F9376.0
sbs(g8
S'dumb'
p713
tp714
g0
(g14
g2
Ntp715
Rp716
(dp717
g18
F0.5
sg19
I9375
sg20
g21
((dp718
I01
I274
sNI9101
stp719
Rp720
sg25
I2
sg26
F9376.0
sbs(g9
S'his'
p721
tp722
g0
(g14
g2
Ntp723
Rp724
(dp725
g18
F0.5
sg19
I9375
sg20
g21
((dp726
I01
I4207
sNI5168
stp727
Rp728
sg25
I2
sg26
F9376.0
sbs(g8
S'very'
p729
tp730
g0
(g14
g2
Ntp731
Rp732
(dp733
g18
F0.5
sg19
I9375
sg20
g21
((dp734
I01
I2717
sNI6658
stp735
Rp736
sg25
I2
sg26
F9376.0
sbs(g9
S'.'
p737
tp738
g0
(g14
g2
Ntp739
Rp740
(dp741
g18
F0.5
sg19
I9375
sg20
g21
((dp742
I01
I9339
sNI36
stp743
Rp744
sg25
I2
sg26
F9376.0
sbs(g8
S'movie'
p745
tp746
g0
(g14
g2
Ntp747
Rp748
(dp749
g18
F0.5
sg19
I9375
sg20
g21
((dp750
I01
I6109
sNI3266
stp751
Rp752
sg25
I2
sg26
F9376.0
sbs(g8
S'minutes'
p753
tp754
g0
(g14
g2
Ntp755
Rp756
(dp757
g18
F0.5
sg19
I9375
sg20
g21
((dp758
I01
I1235
sNI8140
stp759
Rp760
sg25
I2
sg26
F9376.0
sbs(g8
S'world'
p761
tp762
g0
(g14
g2
Ntp763
Rp764
(dp765
g18
F0.5
sg19
I9375
sg20
g21
((dp766
I01
I719
sNI8656
stp767
Rp768
sg25
I2
sg26
F9376.0
sbs(g8
S'is'
p769
tp770
g0
(g14
g2
Ntp771
Rp772
(dp773
g18
F0.5
sg19
I9375
sg20
g21
((dp774
I01
I8284
sNI1091
stp775
Rp776
sg25
I2
sg26
F9376.0
sbs(g9
S'was'
p777
tp778
g0
(g14
g2
Ntp779
Rp780
(dp781
g18
F0.5
sg19
I9375
sg20
g21
((dp782
I01
I5745
sNI3630
stp783
Rp784
sg25
I2
sg26
F9376.0
sbs(g9
S'as'
p785
tp786
g0
(g14
g2
Ntp787
Rp788
(dp789
g18
F0.5
sg19
I9375
sg20
g21
((dp790
I01
I6092
sNI3283
stp791
Rp792
sg25
I2
sg26
F9376.0
sbs(g9
S'brilliant'
p793
tp794
g0
(g14
g2
Ntp795
Rp796
(dp797
g18
F0.5
sg19
I9375
sg20
g21
((dp798
I01
I563
sNI8812
stp799
Rp800
sg25
I2
sg26
F9376.0
sbs(g8
S'if'
p801
tp802
g0
(g14
g2
Ntp803
Rp804
(dp805
g18
F0.5
sg19
I9375
sg20
g21
((dp806
I01
I3341
sNI6034
stp807
Rp808
sg25
I2
sg26
F9376.0
sbs(g9
S'if'
p809
tp810
g0
(g14
g2
Ntp811
Rp812
(dp813
g18
F0.5
sg19
I9375
sg20
g21
((dp814
I01
I2658
sNI6717
stp815
Rp816
sg25
I2
sg26
F9376.0
sbs(g9
S"couldn't"
p817
tp818
g0
(g14
g2
Ntp819
Rp820
(dp821
g18
F0.5
sg19
I9375
sg20
g21
((dp822
I01
I314
sNI9061
stp823
Rp824
sg25
I2
sg26
F9376.0
sbs(g9
S'wasted'
p825
tp826
g0
(g14
g2
Ntp827
Rp828
(dp829
g18
F0.5
sg19
I9375
sg20
g21
((dp830
I01
I60
sNI9315
stp831
Rp832
sg25
I2
sg26
F9376.0
sbs(g8
S'money'
p833
tp834
g0
(g14
g2
Ntp835
Rp836
(dp837
g18
F0.5
sg19
I9375
sg20
g21
((dp838
I01
I1034
sNI8341
stp839
Rp840
sg25
I2
sg26
F9376.0
sbs(g8
S'annoying'
p841
tp842
g0
(g14
g2
Ntp843
Rp844
(dp845
g18
F0.5
sg19
I9375
sg20
g21
((dp846
I01
I494
sNI8881
stp847
Rp848
sg25
I2
sg26
F9376.0
sbs(g9
S'boring'
p849
tp850
g0
(g14
g2
Ntp851
Rp852
(dp853
g18
F0.5
sg19
I9375
sg20
g21
((dp854
I01
I232
sNI9143
stp855
Rp856
sg25
I2
sg26
F9376.0
sbs(g9
S'movie'
p857
tp858
g0
(g14
g2
Ntp859
Rp860
(dp861
g18
F0.5
sg19
I9375
sg20
g21
((dp862
I01
I5117
sNI4258
stp863
Rp864
sg25
I2
sg26
F9376.0
sbs(g8
S'awful'
p865
tp866
g0
(g14
g2
Ntp867
Rp868
(dp869
g18
F0.5
sg19
I9375
sg20
g21
((dp870
I01
I909
sNI8466
stp871
Rp872
sg25
I2
sg26
F9376.0
sbs(g9
S'perfect'
p873
tp874
g0
(g14
g2
Ntp875
Rp876
(dp877
g18
F0.5
sg19
I9375
sg20
g21
((dp878
I01
I781
sNI8594
stp879
Rp880
sg25
I2
sg26
F9376.0
sbs(g8
S'perfect'
p881
tp882
g0
(g14
g2
Ntp883
Rp884
(dp885
g18
F0.5
sg19
I9375
sg20
g21
((dp886
I01
I222
sNI9153
stp887
Rp888
sg25
I2
sg26
F9376.0
sbs(g9
S'young'
p889
tp890
g0
(g14
g2
Ntp891
Rp892
(dp893
g18
F0.5
sg19
I9375
sg20
g21
((dp894
I01
I1179
sNI8196
stp895
Rp896
sg25
I2
sg26
F9376.0
sbs(g9
S'terrible'
p897
tp898
g0
(g14
g2
Ntp899
Rp900
(dp901
g18
F0.5
sg19
I9375
sg20
g21
((dp902
I01
I162
sNI9213
stp903
Rp904
sg25
I2
sg26
F9376.0
sbs(g8
S"couldn't"
p905
tp906
g0
(g14
g2
Ntp907
Rp908
(dp909
g18
F0.5
sg19
I9375
sg20
g21
((dp910
I01
I668
sNI8707
stp911
Rp912
sg25
I2
sg26
F9376.0
sbs(g9
S'also'
p913
tp914
g0
(g14
g2
Ntp915
Rp916
(dp917
g18
F0.5
sg19
I9375
sg20
g21
((dp918
I01
I2526
sNI6849
stp919
Rp920
sg25
I2
sg26
F9376.0
sbs(g9
S"don't"
p921
tp922
g0
(g14
g2
Ntp923
Rp924
(dp925
g18
F0.5
sg19
I9375
sg20
g21
((dp926
I01
I1705
sNI7670
stp927
Rp928
sg25
I2
sg26
F9376.0
sbs(g9
S'reason'
p929
tp930
g0
(g14
g2
Ntp931
Rp932
(dp933
g18
F0.5
sg19
I9375
sg20
g21
((dp934
I01
I539
sNI8836
stp935
Rp936
sg25
I2
sg26
F9376.0
sbs(g8
S'also'
p937
tp938
g0
(g14
g2
Ntp939
Rp940
(dp941
g18
F0.5
sg19
I9375
sg20
g21
((dp942
I01
I1660
sNI7715
stp943
Rp944
sg25
I2
sg26
F9376.0
sbs(g8
S'poorly'
p945
tp946
g0
(g14
g2
Ntp947
Rp948
(dp949
g18
F0.5
sg19
I9375
sg20
g21
((dp950
I01
I392
sNI8983
stp951
Rp952
sg25
I2
sg26
F9376.0
sbs(g8
S'favorite'
p953
tp954
g0
(g14
g2
Ntp955
Rp956
(dp957
g18
F0.5
sg19
I9375
sg20
g21
((dp958
I01
I169
sNI9206
stp959
Rp960
sg25
I2
sg26
F9376.0
sbs(g9
S'they'
p961
tp962
g0
(g14
g2
Ntp963
Rp964
(dp965
g18
F0.5
sg19
I9375
sg20
g21
((dp966
I01
I3219
sNI6156
stp967
Rp968
sg25
I2
sg26
F9376.0
sbs(g9
S'both'
p969
tp970
g0
(g14
g2
Ntp971
Rp972
(dp973
g18
F0.5
sg19
I9375
sg20
g21
((dp974
I01
I1206
sNI8169
stp975
Rp976
sg25
I2
sg26
F9376.0
sbs(g8
S'and'
p977
tp978
g0
(g14
g2
Ntp979
Rp980
(dp981
g18
F0.5
sg19
I9375
sg20
g21
((dp982
I01
I8959
sNI416
stp983
Rp984
sg25
I2
sg26
F9376.0
sbs(g9
S'fantastic'
p985
tp986
g0
(g14
g2
Ntp987
Rp988
(dp989
g18
F0.5
sg19
I9375
sg20
g21
((dp990
I01
I429
sNI8946
stp991
Rp992
sg25
I2
sg26
F9376.0
sbs(g8
S'both'
p993
tp994
g0
(g14
g2
Ntp995
Rp996
(dp997
g18
F0.5
sg19
I9375
sg20
g21
((dp998
I01
I680
sNI8695
stp999
Rp1000
sg25
I2
sg26
F9376.0
sbs(g8
S'highly'
p1001
tp1002
g0
(g14
g2
Ntp1003
Rp1004
(dp1005
g18
F0.5
sg19
I9375
sg20
g21
((dp1006
I01
I174
sNI9201
stp1007
Rp1008
sg25
I2
sg26
F9376.0
sbs(g9
S'highly'
p1009
tp1010
g0
(g14
g2
Ntp1011
Rp1012
(dp1013
g18
F0.5
sg19
I9375
sg20
g21
((dp1014
I01
I505
sNI8870
stp1015
Rp1016
sg25
I2
sg26
F9376.0
sbs(g9
S'like'
p1017
tp1018
g0
(g14
g2
Ntp1019
Rp1020
(dp1021
g18
F0.5
sg19
I9375
sg20
g21
((dp1022
I01
I3892
sNI5483
stp1023
Rp1024
sg25
I2
sg26
F9376.0
sbs(g8
S'pointless'
p1025
tp1026
g0
(g14
g2
Ntp1027
Rp1028
(dp1029
g18
F0.5
sg19
I9375
sg20
g21
((dp1030
I01
I286
sNI9089
stp1031
Rp1032
sg25
I2
sg26
F9376.0
sbs(g8
S'make'
p1033
tp1034
g0
(g14
g2
Ntp1035
Rp1036
(dp1037
g18
F0.5
sg19
I9375
sg20
g21
((dp1038
I01
I2578
sNI6797
stp1039
Rp1040
sg25
I2
sg26
F9376.0
sbs(g8
S'as'
p1041
tp1042
g0
(g14
g2
Ntp1043
Rp1044
(dp1045
g18
F0.5
sg19
I9375
sg20
g21
((dp1046
I01
I5566
sNI3809
stp1047
Rp1048
sg25
I2
sg26
F9376.0
sbs(g9
S'pointless'
p1049
tp1050
g0
(g14
g2
Ntp1051
Rp1052
(dp1053
g18
F0.5
sg19
I9375
sg20
g21
((dp1054
I01
I23
sNI9352
stp1055
Rp1056
sg25
I2
sg26
F9376.0
sbs(g9
S'no'
p1057
tp1058
g0
(g14
g2
Ntp1059
Rp1060
(dp1061
g18
F0.5
sg19
I9375
sg20
g21
((dp1062
I01
I2176
sNI7199
stp1063
Rp1064
sg25
I2
sg26
F9376.0
sbs(g9
S'bad'
p1065
tp1066
g0
(g14
g2
Ntp1067
Rp1068
(dp1069
g18
F0.5
sg19
I9375
sg20
g21
((dp1070
I01
I1039
sNI8336
stp1071
Rp1072
sg25
I2
sg26
F9376.0
sbs(g8
S'bad'
p1073
tp1074
g0
(g14
g2
Ntp1075
Rp1076
(dp1077
g18
F0.5
sg19
I9375
sg20
g21
((dp1078
I01
I3160
sNI6215
stp1079
Rp1080
sg25
I2
sg26
F9376.0
sbs(g8
S'ridiculous'
p1081
tp1082
g0
(g14
g2
Ntp1083
Rp1084
(dp1085
g18
F0.5
sg19
I9375
sg20
g21
((dp1086
I01
I509
sNI8866
stp1087
Rp1088
sg25
I2
sg26
F9376.0
sbs(g8
S'her'
p1089
tp1090
g0
(g14
g2
Ntp1091
Rp1092
(dp1093
g18
F0.5
sg19
I9375
sg20
g21
((dp1094
I01
I2284
sNI7091
stp1095
Rp1096
sg25
I2
sg26
F9376.0
sbs(g8
S"don't"
p1097
tp1098
g0
(g14
g2
Ntp1099
Rp1100
(dp1101
g18
F0.5
sg19
I9375
sg20
g21
((dp1102
I01
I2401
sNI6974
stp1103
Rp1104
sg25
I2
sg26
F9376.0
sbs(g8
S'laughable'
p1105
tp1106
g0
(g14
g2
Ntp1107
Rp1108
(dp1109
g18
F0.5
sg19
I9375
sg20
g21
((dp1110
I01
I259
sNI9116
stp1111
Rp1112
sg25
I2
sg26
F9376.0
sbs(g9
S'heart'
p1113
tp1114
g0
(g14
g2
Ntp1115
Rp1116
(dp1117
g18
F0.5
sg19
I9375
sg20
g21
((dp1118
I01
I547
sNI8828
stp1119
Rp1120
sg25
I2
sg26
F9376.0
sbs(g8
S'waste'
p1121
tp1122
g0
(g14
g2
Ntp1123
Rp1124
(dp1125
g18
F0.5
sg19
I9375
sg20
g21
((dp1126
I01
I900
sNI8475
stp1127
Rp1128
sg25
I2
sg26
F9376.0
sbs(g8
S'then'
p1129
tp1130
g0
(g14
g2
Ntp1131
Rp1132
(dp1133
g18
F0.5
sg19
I9375
sg20
g21
((dp1134
I01
I2098
sNI7277
stp1135
Rp1136
sg25
I2
sg26
F9376.0
sbs(g8
S'supposed'
p1137
tp1138
g0
(g14
g2
Ntp1139
Rp1140
(dp1141
g18
F0.5
sg19
I9375
sg20
g21
((dp1142
I01
I757
sNI8618
stp1143
Rp1144
sg25
I2
sg26
F9376.0
sbs(g8
S'mess'
p1145
tp1146
g0
(g14
g2
Ntp1147
Rp1148
(dp1149
g18
F0.5
sg19
I9375
sg20
g21
((dp1150
I01
I367
sNI9008
stp1151
Rp1152
sg25
I2
sg26
F9376.0
sbs(g9
S'superb'
p1153
tp1154
g0
(g14
g2
Ntp1155
Rp1156
(dp1157
g18
F0.5
sg19
I9375
sg20
g21
((dp1158
I01
I380
sNI8995
stp1159
Rp1160
sg25
I2
sg26
F9376.0
sbs(g8
S'they'
p1161
tp1162
g0
(g14
g2
Ntp1163
Rp1164
(dp1165
g18
F0.5
sg19
I9375
sg20
g21
((dp1166
I01
I3923
sNI5452
stp1167
Rp1168
sg25
I2
sg26
F9376.0
sbs(g8
S'horrible'
p1169
tp1170
g0
(g14
g2
Ntp1171
Rp1172
(dp1173
g18
F0.5
sg19
I9375
sg20
g21
((dp1174
I01
I594
sNI8781
stp1175
Rp1176
sg25
I2
sg26
F9376.0
sbs(g8
S'why'
p1177
tp1178
g0
(g14
g2
Ntp1179
Rp1180
(dp1181
g18
F0.5
sg19
I9375
sg20
g21
((dp1182
I01
I1392
sNI7983
stp1183
Rp1184
sg25
I2
sg26
F9376.0
sbs(g8
S'thing'
p1185
tp1186
g0
(g14
g2
Ntp1187
Rp1188
(dp1189
g18
F0.5
sg19
I9375
sg20
g21
((dp1190
I01
I1709
sNI7666
stp1191
Rp1192
sg25
I2
sg26
F9376.0
sbs(g8
S'best'
p1193
tp1194
g0
(g14
g2
Ntp1195
Rp1196
(dp1197
g18
F0.5
sg19
I9375
sg20
g21
((dp1198
I01
I1262
sNI8113
stp1199
Rp1200
sg25
I2
sg26
F9376.0
sbs(g8
S'lame'
p1201
tp1202
g0
(g14
g2
Ntp1203
Rp1204
(dp1205
g18
F0.5
sg19
I9375
sg20
g21
((dp1206
I01
I394
sNI8981
stp1207
Rp1208
sg25
I2
sg26
F9376.0
sbs(g9
S'make'
p1209
tp1210
g0
(g14
g2
Ntp1211
Rp1212
(dp1213
g18
F0.5
sg19
I9375
sg20
g21
((dp1214
I01
I1875
sNI7500
stp1215
Rp1216
sg25
I2
sg26
F9376.0
sbs(g9
S'plot'
p1217
tp1218
g0
(g14
g2
Ntp1219
Rp1220
(dp1221
g18
F0.5
sg19
I9375
sg20
g21
((dp1222
I01
I1324
sNI8051
stp1223
Rp1224
sg25
I2
sg26
F9376.0
sbs(g9
S'well'
p1225
tp1226
g0
(g14
g2
Ntp1227
Rp1228
(dp1229
g18
F0.5
sg19
I9375
sg20
g21
((dp1230
I01
I3030
sNI6345
stp1231
Rp1232
sg25
I2
sg26
F9376.0
sbs(g8
S'plot'
p1233
tp1234
g0
(g14
g2
Ntp1235
Rp1236
(dp1237
g18
F0.5
sg19
I9375
sg20
g21
((dp1238
I01
I2299
sNI7076
stp1239
Rp1240
sg25
I2
sg26
F9376.0
sbs(g8
S'so'
p1241
tp1242
g0
(g14
g2
Ntp1243
Rp1244
(dp1245
g18
F0.5
sg19
I9375
sg20
g21
((dp1246
I01
I4382
sNI4993
stp1247
Rp1248
sg25
I2
sg26
F9376.0
sbs(g9
S'least'
p1249
tp1250
g0
(g14
g2
Ntp1251
Rp1252
(dp1253
g18
F0.5
sg19
I9375
sg20
g21
((dp1254
I01
I751
sNI8624
stp1255
Rp1256
sg25
I2
sg26
F9376.0
sbs(g8
S'beautiful'
p1257
tp1258
g0
(g14
g2
Ntp1259
Rp1260
(dp1261
g18
F0.5
sg19
I9375
sg20
g21
((dp1262
I01
I371
sNI9004
stp1263
Rp1264
sg25
I2
sg26
F9376.0
sbs(g9
S'waste'
p1265
tp1266
g0
(g14
g2
Ntp1267
Rp1268
(dp1269
g18
F0.5
sg19
I9375
sg20
g21
((dp1270
I01
I66
sNI9309
stp1271
Rp1272
sg25
I2
sg26
F9376.0
sbs(g8
S'could'
p1273
tp1274
g0
(g14
g2
Ntp1275
Rp1276
(dp1277
g18
F0.5
sg19
I9375
sg20
g21
((dp1278
I01
I2516
sNI6859
stp1279
Rp1280
sg25
I2
sg26
F9376.0
sbs(g8
S'amazing'
p1281
tp1282
g0
(g14
g2
Ntp1283
Rp1284
(dp1285
g18
F0.5
sg19
I9375
sg20
g21
((dp1286
I01
I171
sNI9204
stp1287
Rp1288
sg25
I2
sg26
F9376.0
sbs(g9
S'oh'
p1289
tp1290
g0
(g14
g2
Ntp1291
Rp1292
(dp1293
g18
F0.5
sg19
I9375
sg20
g21
((dp1294
I01
I84
sNI9291
stp1295
Rp1296
sg25
I2
sg26
F9376.0
sbs(g9
S'acting'
p1297
tp1298
g0
(g14
g2
Ntp1299
Rp1300
(dp1301
g18
F0.5
sg19
I9375
sg20
g21
((dp1302
I01
I1498
sNI7877
stp1303
Rp1304
sg25
I2
sg26
F9376.0
sbs(g8
S'acting'
p1305
tp1306
g0
(g14
g2
Ntp1307
Rp1308
(dp1309
g18
F0.5
sg19
I9375
sg20
g21
((dp1310
I01
I2363
sNI7012
stp1311
Rp1312
sg25
I2
sg26
F9376.0
sbs(g8
S'nothing'
p1313
tp1314
g0
(g14
g2
Ntp1315
Rp1316
(dp1317
g18
F0.5
sg19
I9375
sg20
g21
((dp1318
I01
I1558
sNI7817
stp1319
Rp1320
sg25
I2
sg26
F9376.0
sbs(g9
S'excellent'
p1321
tp1322
g0
(g14
g2
Ntp1323
Rp1324
(dp1325
g18
F0.5
sg19
I9375
sg20
g21
((dp1326
I01
I992
sNI8383
stp1327
Rp1328
sg25
I2
sg26
F9376.0
sbs(g8
g737
tp1329
g0
(g14
g2
Ntp1330
Rp1331
(dp1332
g18
F0.5
sg19
I9375
sg20
g21
((dp1333
I01
I9347
sNI28
stp1334
Rp1335
sg25
I2
sg26
F9376.0
sbs(g9
S'crap'
p1336
tp1337
g0
(g14
g2
Ntp1338
Rp1339
(dp1340
g18
F0.5
sg19
I9375
sg20
g21
((dp1341
I01
I99
sNI9276
stp1342
Rp1343
sg25
I2
sg26
F9376.0
sbs(g8
S'boring'
p1344
tp1345
g0
(g14
g2
Ntp1346
Rp1347
(dp1348
g18
F0.5
sg19
I9375
sg20
g21
((dp1349
I01
I864
sNI8511
stp1350
Rp1351
sg25
I2
sg26
F9376.0
sbs(g8
S'was'
p1352
tp1353
g0
(g14
g2
Ntp1354
Rp1355
(dp1356
g18
F0.5
sg19
I9375
sg20
g21
((dp1357
I01
I6365
sNI3010
stp1358
Rp1359
sg25
I2
sg26
F9376.0
sbs(g8
S"didn't"
p1360
tp1361
g0
(g14
g2
Ntp1362
Rp1363
(dp1364
g18
F0.5
sg19
I9375
sg20
g21
((dp1365
I01
I1520
sNI7855
stp1366
Rp1367
sg25
I2
sg26
F9376.0
sbs(g9
S'instead'
p1368
tp1369
g0
(g14
g2
Ntp1370
Rp1371
(dp1372
g18
F0.5
sg19
I9375
sg20
g21
((dp1373
I01
I368
sNI9007
stp1374
Rp1375
sg25
I2
sg26
F9376.0
sbs(g9
S'today'
p1376
tp1377
g0
(g14
g2
Ntp1378
Rp1379
(dp1380
g18
F0.5
sg19
I9375
sg20
g21
((dp1381
I01
I453
sNI8922
stp1382
Rp1383
sg25
I2
sg26
F9376.0
sbs(g8
g195
tp1384
g0
(g14
g2
Ntp1385
Rp1386
(dp1387
g18
F0.5
sg19
I9375
sg20
g21
((dp1388
I01
I3538
sNI5837
stp1389
Rp1390
sg25
I2
sg26
F9376.0
sbs(g9
S'could'
p1391
tp1392
g0
(g14
g2
Ntp1393
Rp1394
(dp1395
g18
F0.5
sg19
I9375
sg20
g21
((dp1396
I01
I1821
sNI7554
stp1397
Rp1398
sg25
I2
sg26
F9376.0
sbs(g9
S'why'
p1399
tp1400
g0
(g14
g2
Ntp1401
Rp1402
(dp1403
g18
F0.5
sg19
I9375
sg20
g21
((dp1404
I01
I949
sNI8426
stp1405
Rp1406
sg25
I2
sg26
F9376.0
sbs(g8
S'there'
p1407
tp1408
g0
(g14
g2
Ntp1409
Rp1410
(dp1411
g18
F0.5
sg19
I9375
sg20
g21
((dp1412
I01
I3006
sNI6369
stp1413
Rp1414
sg25
I2
sg26
F9376.0
sbs(g8
S'unless'
p1415
tp1416
g0
(g14
g2
Ntp1417
Rp1418
(dp1419
g18
F0.5
sg19
I9375
sg20
g21
((dp1420
I01
I289
sNI9086
stp1421
Rp1422
sg25
I2
sg26
F9376.0
sbs(g8
S'poor'
p1423
tp1424
g0
(g14
g2
Ntp1425
Rp1426
(dp1427
g18
F0.5
sg19
I9375
sg20
g21
((dp1428
I01
I869
sNI8506
stp1429
Rp1430
sg25
I2
sg26
F9376.0
sbs(g9
S'badly'
p1431
tp1432
g0
(g14
g2
Ntp1433
Rp1434
(dp1435
g18
F0.5
sg19
I9375
sg20
g21
((dp1436
I01
I66
sNI9309
stp1437
Rp1438
sg25
I2
sg26
F9376.0
sbs(g8
S'life'
p1439
tp1440
g0
(g14
g2
Ntp1441
Rp1442
(dp1443
g18
F0.5
sg19
I9375
sg20
g21
((dp1444
I01
I1351
sNI8024
stp1445
Rp1446
sg25
I2
sg26
F9376.0
sbs(g9
S'worse'
p1447
tp1448
g0
(g14
g2
Ntp1449
Rp1450
(dp1451
g18
F0.5
sg19
I9375
sg20
g21
((dp1452
I01
I151
sNI9224
stp1453
Rp1454
sg25
I2
sg26
F9376.0
sbs(g8
S'i'
p1455
tp1456
g0
(g14
g2
Ntp1457
Rp1458
(dp1459
g18
F0.5
sg19
I9375
sg20
g21
((dp1460
I01
I717
sNI8658
stp1461
Rp1462
sg25
I2
sg26
F9376.0
sbs(g8
S'even'
p1463
tp1464
g0
(g14
g2
Ntp1465
Rp1466
(dp1467
g18
F0.5
sg19
I9375
sg20
g21
((dp1468
I01
I3290
sNI6085
stp1469
Rp1470
sg25
I2
sg26
F9376.0
sbs(g9
S'1'
p1471
tp1472
g0
(g14
g2
Ntp1473
Rp1474
(dp1475
g18
F0.5
sg19
I9375
sg20
g21
((dp1476
I01
I377
sNI8998
stp1477
Rp1478
sg25
I2
sg26
F9376.0
sbs(g8
S'excellent'
p1479
tp1480
g0
(g14
g2
Ntp1481
Rp1482
(dp1483
g18
F0.5
sg19
I9375
sg20
g21
((dp1484
I01
I256
sNI9119
stp1485
Rp1486
sg25
I2
sg26
F9376.0
sbs(g9
S'just'
p1487
tp1488
g0
(g14
g2
Ntp1489
Rp1490
(dp1491
g18
F0.5
sg19
I9375
sg20
g21
((dp1492
I01
I3267
sNI6108
stp1493
Rp1494
sg25
I2
sg26
F9376.0
sbs(g8
g1471
tp1495
g0
(g14
g2
Ntp1496
Rp1497
(dp1498
g18
F0.5
sg19
I9375
sg20
g21
((dp1499
I01
I923
sNI8452
stp1500
Rp1501
sg25
I2
sg26
F9376.0
sbs(g9
S'script'
p1502
tp1503
g0
(g14
g2
Ntp1504
Rp1505
(dp1506
g18
F0.5
sg19
I9375
sg20
g21
((dp1507
I01
I635
sNI8740
stp1508
Rp1509
sg25
I2
sg26
F9376.0
sbs(g9
S'very'
p1510
tp1511
g0
(g14
g2
Ntp1512
Rp1513
(dp1514
g18
F0.5
sg19
I9375
sg20
g21
((dp1515
I01
I3501
sNI5874
stp1516
Rp1517
sg25
I2
sg26
F9376.0
sbs(g8
S'worse'
p1518
tp1519
g0
(g14
g2
Ntp1520
Rp1521
(dp1522
g18
F0.5
sg19
I9375
sg20
g21
((dp1523
I01
I733
sNI8642
stp1524
Rp1525
sg25
I2
sg26
F9376.0
sbs(g9
S'is'
p1526
tp1527
g0
(g14
g2
Ntp1528
Rp1529
(dp1530
g18
F0.5
sg19
I9375
sg20
g21
((dp1531
I01
I8493
sNI882
stp1532
Rp1533
sg25
I2
sg26
F9376.0
sbs(g8
S'young'
p1534
tp1535
g0
(g14
g2
Ntp1536
Rp1537
(dp1538
g18
F0.5
sg19
I9375
sg20
g21
((dp1539
I01
I698
sNI8677
stp1540
Rp1541
sg25
I2
sg26
F9376.0
sbs(g9
S'in'
p1542
tp1543
g0
(g14
g2
Ntp1544
Rp1545
(dp1546
g18
F0.5
sg19
I9375
sg20
g21
((dp1547
I01
I8228
sNI1147
stp1548
Rp1549
sg25
I2
sg26
F9376.0
sbs(g8
S'badly'
p1550
tp1551
g0
(g14
g2
Ntp1552
Rp1553
(dp1554
g18
F0.5
sg19
I9375
sg20
g21
((dp1555
I01
I359
sNI9016
stp1556
Rp1557
sg25
I2
sg26
F9376.0
sbs(g8
S'dull'
p1558
tp1559
g0
(g14
g2
Ntp1560
Rp1561
(dp1562
g18
F0.5
sg19
I9375
sg20
g21
((dp1563
I01
I410
sNI8965
stp1564
Rp1565
sg25
I2
sg26
F9376.0
sbs(g9
S'lame'
p1566
tp1567
g0
(g14
g2
Ntp1568
Rp1569
(dp1570
g18
F0.5
sg19
I9375
sg20
g21
((dp1571
I01
I62
sNI9313
stp1572
Rp1573
sg25
I2
sg26
F9376.0
sbs(g9
S'dull'
p1574
tp1575
g0
(g14
g2
Ntp1576
Rp1577
(dp1578
g18
F0.5
sg19
I9375
sg20
g21
((dp1579
I01
I101
sNI9274
stp1580
Rp1581
sg25
I2
sg26
F9376.0
sbs(g9
g1455
tp1582
g0
(g14
g2
Ntp1583
Rp1584
(dp1585
g18
F0.5
sg19
I9375
sg20
g21
((dp1586
I01
I626
sNI8749
stp1587
Rp1588
sg25
I2
sg26
F9376.0
sbs(g9
S'money'
p1589
tp1590
g0
(g14
g2
Ntp1591
Rp1592
(dp1593
g18
F0.5
sg19
I9375
sg20
g21
((dp1594
I01
I422
sNI8953
stp1595
Rp1596
sg25
I2
sg26
F9376.0
sbs(g8
S'just'
p1597
tp1598
g0
(g14
g2
Ntp1599
Rp1600
(dp1601
g18
F0.5
sg19
I9375
sg20
g21
((dp1602
I01
I4257
sNI5118
stp1603
Rp1604
sg25
I2
sg26
F9376.0
sbs(g9
S'and'
p1605
tp1606
g0
(g14
g2
Ntp1607
Rp1608
(dp1609
g18
F0.5
sg19
I9375
sg20
g21
((dp1610
I01
I9089
sNI286
stp1611
Rp1612
sg25
I2
sg26
F9376.0
sbssS'_label_probdist'
p1613
g0
(g14
g2
Ntp1614
Rp1615
(dp1616
g18
F0.5
sg19
I18750
sg20
g21
((dp1617
g8
I9375
sg9
I9375
stp1618
Rp1619
sg25
I2
sg26
F18751.0
sbsb.