ccopy_reg
_reconstructor
p0
(csklearn.svm.classes
LinearSVC
p1
c__builtin__
object
p2
Ntp3
Rp4
(dp5
S'loss'
p6
S'squared_hinge'
p7
sS'C'
p8
F1.0
sS'verbose'
p9
I0
sS'intercept_scaling'
p10
I1
sS'dual'
p11
I01
sS'fit_intercept'
p12
I01
sS'max_iter'
p13
I1000
sS'penalty'
p14
S'l2'
p15
sS'multi_class'
p16
S'ovr'
p17
sS'random_state'
p18
NsS'tol'
p19
F0.0001
sS'class_weight'
p20
Nsb.